target datalayout = "e-m:e-p270:32:32-p271:32:32-p272:64:64-i64:64-i128:128-f80:128-n8:16:32:64-S128"
target triple = "x86_64-pc-linux-gnu"

%struct.psa_storage_info_t = type { i32, i32 }

; Function Attrs: nounwind uwtable
define internal i64 @psa_its_identifier_of_slot(i32 noundef %0) #0 {
  %2 = alloca i32, align 4
  store i32 %0, ptr %2, align 4, !tbaa !3
  %3 = load i32, ptr %2, align 4, !tbaa !3
  %4 = zext i32 %3 to i64
  ret i64 %4
}

; Function Attrs: nounwind uwtable
define hidden i32 @psa_destroy_persistent_key(i32 noundef %0) #0 {
  %2 = alloca i32, align 4
  %3 = alloca i32, align 4
  %4 = alloca i32, align 4
  %5 = alloca i64, align 8
  %6 = alloca %struct.psa_storage_info_t, align 4
  %7 = alloca i32, align 4
  store i32 %0, ptr %3, align 4, !tbaa !3
  call void @llvm.lifetime.start.p0(i64 4, ptr %4) #7
  call void @llvm.lifetime.start.p0(i64 8, ptr %5) #7
  %8 = load i32, ptr %3, align 4, !tbaa !3
  %9 = call i64 @psa_its_identifier_of_slot(i32 noundef %8)
  store i64 %9, ptr %5, align 8, !tbaa !7
  call void @llvm.lifetime.start.p0(i64 8, ptr %6) #7
  %10 = load i64, ptr %5, align 8, !tbaa !7
  %11 = call i32 @psa_its_get_info(i64 noundef %10, ptr noundef %6)
  store i32 %11, ptr %4, align 4, !tbaa !3
  %12 = load i32, ptr %4, align 4, !tbaa !3
  %13 = icmp eq i32 %12, -140
  br i1 %13, label %14, label %15

14:                                               ; preds = %1
  store i32 0, ptr %2, align 4
  store i32 1, ptr %7, align 4
  br label %27

15:                                               ; preds = %1
  %16 = load i64, ptr %5, align 8, !tbaa !7
  %17 = call i32 @psa_its_remove(i64 noundef %16)
  %18 = icmp ne i32 %17, 0
  br i1 %18, label %19, label %20

19:                                               ; preds = %15
  store i32 -153, ptr %2, align 4
  store i32 1, ptr %7, align 4
  br label %27

20:                                               ; preds = %15
  %21 = load i64, ptr %5, align 8, !tbaa !7
  %22 = call i32 @psa_its_get_info(i64 noundef %21, ptr noundef %6)
  store i32 %22, ptr %4, align 4, !tbaa !3
  %23 = load i32, ptr %4, align 4, !tbaa !3
  %24 = icmp ne i32 %23, -140
  br i1 %24, label %25, label %26

25:                                               ; preds = %20
  store i32 -153, ptr %2, align 4
  store i32 1, ptr %7, align 4
  br label %27

26:                                               ; preds = %20
  store i32 0, ptr %2, align 4
  store i32 1, ptr %7, align 4
  br label %27

27:                                               ; preds = %26, %25, %19, %14
  call void @llvm.lifetime.end.p0(i64 8, ptr %6) #7
  call void @llvm.lifetime.end.p0(i64 8, ptr %5) #7
  call void @llvm.lifetime.end.p0(i64 4, ptr %4) #7
  %28 = load i32, ptr %2, align 4
  ret i32 %28
}