; Function Attrs: nounwind uwtable
define hidden range(i32 -153, 1) i32 @psa_destroy_persistent_key(i32 noundef %0) local_unnamed_addr #0 {
  %2 = alloca %struct.psa_storage_info_t, align 4
  %3 = zext i32 %0 to i64
  call void @llvm.lifetime.start.p0(i64 8, ptr nonnull %2) #8
  %4 = call i32 @psa_its_get_info(i64 noundef %3, ptr noundef nonnull %2) #8
  %5 = icmp eq i32 %4, -140
  br i1 %5, label %10, label %6

6:                                                ; preds = %1
  %7 = call i32 @psa_its_remove(i64 noundef %3) #8
  %.not = icmp eq i32 %7, 0
  br i1 %.not, label %8, label %10

8:                                                ; preds = %6
  %9 = call i32 @psa_its_get_info(i64 noundef %3, ptr noundef nonnull %2) #8
  %.not7 = icmp eq i32 %9, -140
  %. = select i1 %.not7, i32 0, i32 -153
  br label %10

10:                                               ; preds = %8, %6, %1
  %.0 = phi i32 [ 0, %1 ], [ -153, %6 ], [ %., %8 ]
  call void @llvm.lifetime.end.p0(i64 8, ptr nonnull %2) #8
  ret i32 %.0
}